(dp0
S'sarah'
p1
(dp2
S'data'
p3
(lp4
S'2.58'
p5
aS'2.58'
p6
aS'2.39'
p7
aS'2.25'
p8
aS'2.55'
p9
aS'2.54'
p10
aS'2.18'
p11
aS'2.55'
p12
aS'2.55'
p13
asS'name'
p14
g1
ssS'james'
p15
(dp16
g3
(lp17
S'2.34'
p18
aS'3.21'
p19
aS'2.34'
p20
aS'2.45'
p21
aS'3.01'
p22
aS'2.01'
p23
aS'2.01'
p24
aS'3.10'
p25
aS'2.22'
p26
asg14
g15
ssS'julie'
p27
(dp28
g3
(lp29
S'2.59'
p30
aS'2.11'
p31
aS'2.11'
p32
aS'2.23'
p33
aS'3.10'
p34
aS'2.23'
p35
aS'3.10'
p36
aS'3.21'
p37
aS'3.21'
p38
asg14
g27
ssS'mikey'
p39
(dp40
g3
(lp41
S'2.22'
p42
aS'3.01'
p43
aS'3.01'
p44
aS'3.02'
p45
aS'3.02'
p46
aS'3.02'
p47
aS'3.22'
p48
aS'2.49'
p49
aS'2.38'
p50
asg14
g39
ss.